target datalayout = "e-m:e-p270:32:32-p271:32:32-p272:64:64-i64:64-i128:128-f80:128-n8:16:32:64-S128"
target triple = "x86_64-pc-linux-gnu"

; Function Attrs: alwaysinline nounwind
define internal ptr @memset.inline(ptr nonnull %0, i32 %1, i64 %2) #3 {
  %4 = alloca ptr, align 8
  %5 = alloca i32, align 4
  %6 = alloca i64, align 8
  store ptr %0, ptr %4, align 8
  store i32 %1, ptr %5, align 4
  store i64 %2, ptr %6, align 8
  %7 = load ptr, ptr %4, align 8
  %8 = load i32, ptr %5, align 4
  %9 = load i64, ptr %6, align 8
  %10 = load ptr, ptr %4, align 8
  %11 = call i64 @llvm.objectsize.i64.p0(ptr %10, i1 false, i1 true, i1 true)
  %12 = call ptr @__memset_chk(ptr noundef %7, i32 noundef %8, i64 noundef %9, i64 noundef %11) #7
  ret ptr %12
}

; Function Attrs: nounwind ssp uwtable
define internal i32 @_string_to_points(ptr noundef %0, i64 noundef %1, ptr noundef %2, ptr noundef %3, i64 noundef %4, i32 noundef %5) #0 {
  %7 = alloca i32, align 4
  %8 = alloca ptr, align 8
  %9 = alloca i64, align 8
  %10 = alloca ptr, align 8
  %11 = alloca ptr, align 8
  %12 = alloca i64, align 8
  %13 = alloca i32, align 4
  %14 = alloca [64 x i8], align 16
  %15 = alloca [96 x i8], align 16
  %16 = alloca i64, align 8
  %17 = alloca i64, align 8
  %18 = alloca i32, align 4
  store ptr %0, ptr %8, align 8
  store i64 %1, ptr %9, align 8
  store ptr %2, ptr %10, align 8
  store ptr %3, ptr %11, align 8
  store i64 %4, ptr %12, align 8
  store i32 %5, ptr %13, align 4
  call void @llvm.lifetime.start.p0(i64 64, ptr %14) #7
  call void @llvm.lifetime.start.p0(i64 96, ptr %15) #7
  call void @llvm.lifetime.start.p0(i64 8, ptr %16) #7
  call void @llvm.lifetime.start.p0(i64 8, ptr %17) #7
  %19 = load i64, ptr %9, align 8
  %20 = icmp ugt i64 %19, 2
  br i1 %20, label %21, label %22

21:                                               ; preds = %6
  call void @abort() #8
  unreachable

22:                                               ; preds = %6
  %23 = getelementptr inbounds [96 x i8], ptr %15, i64 0, i64 0
  %24 = load i64, ptr %9, align 8
  %25 = mul i64 %24, 48
  %26 = load ptr, ptr %10, align 8
  %27 = load ptr, ptr %11, align 8
  %28 = load i64, ptr %12, align 8
  %29 = load i32, ptr %13, align 4
  %30 = call i32 @_sodium_core_h2c_string_to_hash(ptr noundef %23, i64 noundef %25, ptr noundef %26, ptr noundef %27, i64 noundef %28, i32 noundef %29)
  %31 = icmp ne i32 %30, 0
  br i1 %31, label %32, label %33

32:                                               ; preds = %22
  store i32 -1, ptr %7, align 4
  store i32 1, ptr %18, align 4
  br label %71

33:                                               ; preds = %22
  store i64 0, ptr %16, align 8
  br label %34

34:                                               ; preds = %67, %33
  %35 = load i64, ptr %16, align 8
  %36 = load i64, ptr %9, align 8
  %37 = icmp ult i64 %35, %36
  br i1 %37, label %38, label %70

38:                                               ; preds = %34
  store i64 0, ptr %17, align 8
  br label %39

39:                                               ; preds = %53, %38
  %40 = load i64, ptr %17, align 8
  %41 = icmp ult i64 %40, 48
  br i1 %41, label %42, label %56

42:                                               ; preds = %39
  %43 = load i64, ptr %16, align 8
  %44 = mul i64 %43, 48
  %45 = add i64 %44, 48
  %46 = sub i64 %45, 1
  %47 = load i64, ptr %17, align 8
  %48 = sub i64 %46, %47
  %49 = getelementptr [96 x i8], ptr %15, i64 0, i64 %48
  %50 = load i8, ptr %49, align 1
  %51 = load i64, ptr %17, align 8
  %52 = getelementptr [64 x i8], ptr %14, i64 0, i64 %51
  store i8 %50, ptr %52, align 1
  br label %53

53:                                               ; preds = %42
  %54 = load i64, ptr %17, align 8
  %55 = add i64 %54, 1
  store i64 %55, ptr %17, align 8
  br label %39, !llvm.loop !4

56:                                               ; preds = %39
  %57 = load i64, ptr %17, align 8
  %58 = getelementptr [64 x i8], ptr %14, i64 0, i64 %57
  %59 = load i64, ptr %17, align 8
  %60 = sub i64 64, %59
  %61 = call ptr @memset.inline(ptr noundef %58, i32 noundef 0, i64 noundef %60) #7
  %62 = load ptr, ptr %8, align 8
  %63 = load i64, ptr %16, align 8
  %64 = mul i64 %63, 32
  %65 = getelementptr i8, ptr %62, i64 %64
  %66 = getelementptr inbounds [64 x i8], ptr %14, i64 0, i64 0
  call void @_sodium_ge25519_from_hash(ptr noundef %65, ptr noundef %66)
  br label %67

67:                                               ; preds = %56
  %68 = load i64, ptr %16, align 8
  %69 = add i64 %68, 1
  store i64 %69, ptr %16, align 8
  br label %34, !llvm.loop !6

70:                                               ; preds = %34
  store i32 0, ptr %7, align 4
  store i32 1, ptr %18, align 4
  br label %71

71:                                               ; preds = %70, %32
  call void @llvm.lifetime.end.p0(i64 8, ptr %17) #7
  call void @llvm.lifetime.end.p0(i64 8, ptr %16) #7
  call void @llvm.lifetime.end.p0(i64 96, ptr %15) #7
  call void @llvm.lifetime.end.p0(i64 64, ptr %14) #7
  %72 = load i32, ptr %7, align 4
  ret i32 %72
}

; Function Attrs: nounwind ssp uwtable
define dso_local i32 @crypto_core_ed25519_from_string(ptr noundef nonnull %0, ptr noundef %1, ptr noundef %2, i64 noundef %3, i32 noundef %4) #0 {
  %6 = alloca ptr, align 8
  %7 = alloca ptr, align 8
  %8 = alloca ptr, align 8
  %9 = alloca i64, align 8
  %10 = alloca i32, align 4
  store ptr %0, ptr %6, align 8
  store ptr %1, ptr %7, align 8
  store ptr %2, ptr %8, align 8
  store i64 %3, ptr %9, align 8
  store i32 %4, ptr %10, align 4
  %11 = load ptr, ptr %6, align 8
  %12 = load ptr, ptr %7, align 8
  %13 = load ptr, ptr %8, align 8
  %14 = load i64, ptr %9, align 8
  %15 = load i32, ptr %10, align 4
  %16 = call i32 @_string_to_points(ptr noundef %11, i64 noundef 1, ptr noundef %12, ptr noundef %13, i64 noundef %14, i32 noundef %15)
  ret i32 %16
}