; Function Attrs: nounwind ssp uwtable
define dso_local range(i32 -1, 1) i32 @crypto_core_ed25519_from_string(ptr noundef nonnull %0, ptr noundef %1, ptr noundef %2, i64 noundef %3, i32 noundef %4) local_unnamed_addr #0 {
  %6 = alloca [64 x i8], align 16
  %7 = alloca [96 x i8], align 16
  call void @llvm.lifetime.start.p0(i64 64, ptr nonnull %6) #6
  call void @llvm.lifetime.start.p0(i64 96, ptr nonnull %7) #6
  %8 = call i32 @_sodium_core_h2c_string_to_hash(ptr noundef nonnull %7, i64 noundef 48, ptr noundef %1, ptr noundef %2, i64 noundef %3, i32 noundef %4) #6
  %.not.i = icmp eq i32 %8, 0
  br i1 %.not.i, label %.preheader.preheader.i, label %_string_to_points.exit

.preheader.preheader.i:                           ; preds = %5
  %9 = getelementptr inbounds nuw i8, ptr %6, i64 48
  br label %10

10:                                               ; preds = %10, %.preheader.preheader.i
  %.022.i = phi i64 [ 0, %.preheader.preheader.i ], [ %15, %10 ]
  %11 = sub nuw nsw i64 47, %.022.i
  %12 = getelementptr [96 x i8], ptr %7, i64 0, i64 %11
  %13 = load i8, ptr %12, align 1
  %14 = getelementptr [64 x i8], ptr %6, i64 0, i64 %.022.i
  store i8 %13, ptr %14, align 1
  %15 = add nuw nsw i64 %.022.i, 1
  %exitcond.not.i = icmp eq i64 %15, 48
  br i1 %exitcond.not.i, label %_string_to_points.exit.loopexit, label %10, !llvm.loop !4

_string_to_points.exit.loopexit:                  ; preds = %10
  call void @llvm.memset.p0.i64(ptr noundef nonnull align 16 dereferenceable(16) %9, i8 noundef 0, i64 noundef range(i64 64, 17) 16, i1 noundef false) #6
  call void @_sodium_ge25519_from_hash(ptr noundef nonnull %0, ptr noundef nonnull %6) #6
  br label %_string_to_points.exit

_string_to_points.exit:                           ; preds = %_string_to_points.exit.loopexit, %5
  %.019.i = phi i32 [ -1, %5 ], [ 0, %_string_to_points.exit.loopexit ]
  call void @llvm.lifetime.end.p0(i64 96, ptr nonnull %7) #6
  call void @llvm.lifetime.end.p0(i64 64, ptr nonnull %6) #6
  ret i32 %.019.i
}